target datalayout = "e-m:e-p270:32:32-p271:32:32-p272:64:64-i64:64-i128:128-f80:128-n8:16:32:64-S128"
target triple = "x86_64-pc-linux-gnu"

%class.btSequentialImpulseConstraintSolver = type { %class.btConstraintSolver, %class.btAlignedObjectArray, %class.btAlignedObjectArray.0, %class.btAlignedObjectArray.0, %class.btAlignedObjectArray.0, %class.btAlignedObjectArray.0, %class.btAlignedObjectArray.2, %class.btAlignedObjectArray.2, %class.btAlignedObjectArray.2, %class.btAlignedObjectArray.4, i32, i32, %class.btAlignedObjectArray.2, ptr, ptr, ptr, i32, float, i64, %struct.btSolverAnalyticsData }
%class.btConstraintSolver = type { ptr }
%class.btAlignedObjectArray = type <{ [4 x i8], i32, i32, [4 x i8], ptr, i8, [7 x i8] }>
%class.btAlignedObjectArray.0 = type <{ [4 x i8], i32, i32, [4 x i8], ptr, i8, [7 x i8] }>
%class.btAlignedObjectArray.4 = type <{ [4 x i8], i32, i32, [4 x i8], ptr, i8, [7 x i8] }>
%struct.btSolverAnalyticsData = type { i32, i32, i32, i32, i32, double }
%class.btAlignedObjectArray.2 = type <{ [4 x i8], i32, i32, [4 x i8], ptr, i8, [7 x i8] }>
%class.CProfileSample = type { i8 }
%class.btVector3 = type { [4 x float] }
%struct.btTypedObject = type { i32 }
%struct.btJointFeedback = type { %class.btVector3, %class.btVector3, %class.btVector3, %class.btVector3 }
%"struct.btTypedConstraint::btConstraintInfo1" = type { i32, i32 }
%class.btTypedConstraint = type { ptr, %struct.btTypedObject, i32, %union.anon.19, float, i8, i8, i32, ptr, ptr, float, float, ptr }
%union.anon.19 = type { ptr }

@.str.8 = private unnamed_addr constant [27 x i8] c"internalInitMultipleJoints\00", align 1

; Function Attrs: inlinehint mustprogress nounwind uwtable
define linkonce_odr dso_local void @_ZN9btVector38setValueERKfS1_S1_(ptr noundef nonnull align 4 dereferenceable(16) %0, ptr noundef nonnull align 4 dereferenceable(4) %1, ptr noundef nonnull align 4 dereferenceable(4) %2, ptr noundef nonnull align 4 dereferenceable(4) %3) #4 comdat align 2 {
  %5 = alloca ptr, align 8
  %6 = alloca ptr, align 8
  %7 = alloca ptr, align 8
  %8 = alloca ptr, align 8
  store ptr %0, ptr %5, align 8, !tbaa !82
  store ptr %1, ptr %6, align 8, !tbaa !107
  store ptr %2, ptr %7, align 8, !tbaa !107
  store ptr %3, ptr %8, align 8, !tbaa !107
  %9 = load ptr, ptr %5, align 8
  %10 = load ptr, ptr %6, align 8, !tbaa !107
  %11 = load float, ptr %10, align 4, !tbaa !85
  %12 = getelementptr inbounds nuw %class.btVector3, ptr %9, i32 0, i32 0
  %13 = getelementptr inbounds [4 x float], ptr %12, i64 0, i64 0
  store float %11, ptr %13, align 4, !tbaa !85
  %14 = load ptr, ptr %7, align 8, !tbaa !107
  %15 = load float, ptr %14, align 4, !tbaa !85
  %16 = getelementptr inbounds nuw %class.btVector3, ptr %9, i32 0, i32 0
  %17 = getelementptr inbounds [4 x float], ptr %16, i64 0, i64 1
  store float %15, ptr %17, align 4, !tbaa !85
  %18 = load ptr, ptr %8, align 8, !tbaa !107
  %19 = load float, ptr %18, align 4, !tbaa !85
  %20 = getelementptr inbounds nuw %class.btVector3, ptr %9, i32 0, i32 0
  %21 = getelementptr inbounds [4 x float], ptr %20, i64 0, i64 2
  store float %19, ptr %21, align 4, !tbaa !85
  %22 = getelementptr inbounds nuw %class.btVector3, ptr %9, i32 0, i32 0
  %23 = getelementptr inbounds [4 x float], ptr %22, i64 0, i64 3
  store float 0.000000e+00, ptr %23, align 4, !tbaa !85
  ret void
}

; Function Attrs: mustprogress nounwind uwtable
define linkonce_odr dso_local void @_ZN9btVector37setZeroEv(ptr noundef nonnull align 4 dereferenceable(16) %0) #1 comdat align 2 {
  %2 = alloca ptr, align 8
  %3 = alloca float, align 4
  %4 = alloca float, align 4
  %5 = alloca float, align 4
  store ptr %0, ptr %2, align 8, !tbaa !82
  %6 = load ptr, ptr %2, align 8
  call void @llvm.lifetime.start.p0(i64 4, ptr %3) #16
  store float 0.000000e+00, ptr %3, align 4, !tbaa !85
  call void @llvm.lifetime.start.p0(i64 4, ptr %4) #16
  store float 0.000000e+00, ptr %4, align 4, !tbaa !85
  call void @llvm.lifetime.start.p0(i64 4, ptr %5) #16
  store float 0.000000e+00, ptr %5, align 4, !tbaa !85
  call void @_ZN9btVector38setValueERKfS1_S1_(ptr noundef nonnull align 4 dereferenceable(16) %6, ptr noundef nonnull align 4 dereferenceable(4) %3, ptr noundef nonnull align 4 dereferenceable(4) %4, ptr noundef nonnull align 4 dereferenceable(4) %5)
  call void @llvm.lifetime.end.p0(i64 4, ptr %5) #16
  call void @llvm.lifetime.end.p0(i64 4, ptr %4) #16
  call void @llvm.lifetime.end.p0(i64 4, ptr %3) #16
  ret void
}

; Function Attrs: mustprogress nounwind uwtable
define linkonce_odr dso_local noundef ptr @_ZN17btTypedConstraint16getJointFeedbackEv(ptr noundef nonnull align 8 dereferenceable(72) %0) #1 comdat align 2 {
  %2 = alloca ptr, align 8
  store ptr %0, ptr %2, align 8, !tbaa !192
  %3 = load ptr, ptr %2, align 8
  %4 = getelementptr inbounds nuw %class.btTypedConstraint, ptr %3, i32 0, i32 12
  %5 = load ptr, ptr %4, align 8, !tbaa !207
  ret ptr %5
}

; Function Attrs: mustprogress nounwind uwtable
define linkonce_odr dso_local void @_ZN17btTypedConstraint25internalSetAppliedImpulseEf(ptr noundef nonnull align 8 dereferenceable(72) %0, float noundef %1) #1 comdat align 2 {
  %3 = alloca ptr, align 8
  %4 = alloca float, align 4
  store ptr %0, ptr %3, align 8, !tbaa !192
  store float %1, ptr %4, align 4, !tbaa !85
  %5 = load ptr, ptr %3, align 8
  %6 = load float, ptr %4, align 4, !tbaa !85
  %7 = getelementptr inbounds nuw %class.btTypedConstraint, ptr %5, i32 0, i32 10
  store float %6, ptr %7, align 8, !tbaa !206
  ret void
}

; Function Attrs: mustprogress nounwind uwtable
define linkonce_odr dso_local noundef zeroext i1 @_ZNK17btTypedConstraint9isEnabledEv(ptr noundef nonnull align 8 dereferenceable(72) %0) #1 comdat align 2 {
  %2 = alloca ptr, align 8
  store ptr %0, ptr %2, align 8, !tbaa !192
  %3 = load ptr, ptr %2, align 8
  %4 = getelementptr inbounds nuw %class.btTypedConstraint, ptr %3, i32 0, i32 5
  %5 = load i8, ptr %4, align 4, !tbaa !204, !range !109, !noundef !110
  %6 = trunc i8 %5 to i1
  ret i1 %6
}

; Function Attrs: inlinehint mustprogress nounwind uwtable
define linkonce_odr dso_local noundef nonnull align 4 dereferenceable(8) ptr @_ZN20btAlignedObjectArrayIN17btTypedConstraint17btConstraintInfo1EEixEi(ptr noundef nonnull align 8 dereferenceable(25) %0, i32 noundef %1) #4 comdat align 2 {
  %3 = alloca ptr, align 8
  %4 = alloca i32, align 4
  store ptr %0, ptr %3, align 8, !tbaa !201
  store i32 %1, ptr %4, align 4, !tbaa !9
  %5 = load ptr, ptr %3, align 8
  %6 = getelementptr inbounds nuw %class.btAlignedObjectArray.4, ptr %5, i32 0, i32 4
  %7 = load ptr, ptr %6, align 8, !tbaa !203
  %8 = load i32, ptr %4, align 4, !tbaa !9
  %9 = sext i32 %8 to i64
  %10 = getelementptr inbounds %"struct.btTypedConstraint::btConstraintInfo1", ptr %7, i64 %9
  ret ptr %10
}

; Function Attrs: mustprogress uwtable
define dso_local void @_ZN37btSequentialImpulseConstraintSolverMt26internalInitMultipleJointsEPP17btTypedConstraintii(ptr noundef nonnull align 8 dereferenceable(920) %0, ptr noundef %1, i32 noundef %2, i32 noundef %3) #2 align 2 personality ptr @__gxx_personality_v0 {
  %5 = alloca ptr, align 8
  %6 = alloca ptr, align 8
  %7 = alloca i32, align 4
  %8 = alloca i32, align 4
  %9 = alloca %class.CProfileSample, align 1
  %10 = alloca i32, align 4
  %11 = alloca ptr, align 8
  %12 = alloca ptr, align 8
  %13 = alloca ptr, align 8
  %14 = alloca i32, align 4
  %15 = alloca ptr, align 8
  store ptr %0, ptr %5, align 8, !tbaa !12
  store ptr %1, ptr %6, align 8, !tbaa !190
  store i32 %2, ptr %7, align 4, !tbaa !9
  store i32 %3, ptr %8, align 4, !tbaa !9
  %16 = load ptr, ptr %5, align 8
  call void @llvm.lifetime.start.p0(i64 1, ptr %9) #16
  call void @_ZN14CProfileSampleC1EPKc(ptr noundef nonnull align 1 dereferenceable(1) %9, ptr noundef @.str.8)
  call void @llvm.lifetime.start.p0(i64 4, ptr %10) #16
  %17 = load i32, ptr %7, align 4, !tbaa !9
  store i32 %17, ptr %10, align 4, !tbaa !9
  br label %18

18:                                               ; preds = %83, %4
  %19 = load i32, ptr %10, align 4, !tbaa !9
  %20 = load i32, ptr %8, align 4, !tbaa !9
  %21 = icmp slt i32 %19, %20
  br i1 %21, label %23, label %22

22:                                               ; preds = %18
  call void @llvm.lifetime.end.p0(i64 4, ptr %10) #16
  br label %87

23:                                               ; preds = %18
  call void @llvm.lifetime.start.p0(i64 8, ptr %11) #16
  %24 = load ptr, ptr %6, align 8, !tbaa !190
  %25 = load i32, ptr %10, align 4, !tbaa !9
  %26 = sext i32 %25 to i64
  %27 = getelementptr inbounds ptr, ptr %24, i64 %26
  %28 = load ptr, ptr %27, align 8, !tbaa !192
  store ptr %28, ptr %11, align 8, !tbaa !192
  call void @llvm.lifetime.start.p0(i64 8, ptr %12) #16
  %29 = getelementptr inbounds nuw %class.btSequentialImpulseConstraintSolver, ptr %16, i32 0, i32 9
  %30 = load i32, ptr %10, align 4, !tbaa !9
  %31 = invoke noundef nonnull align 4 dereferenceable(8) ptr @_ZN20btAlignedObjectArrayIN17btTypedConstraint17btConstraintInfo1EEixEi(ptr noundef nonnull align 8 dereferenceable(25) %29, i32 noundef %30)
          to label %32 unwind label %62

32:                                               ; preds = %23
  store ptr %31, ptr %12, align 8, !tbaa !194
  %33 = load ptr, ptr %11, align 8, !tbaa !192
  %34 = invoke noundef zeroext i1 @_ZNK17btTypedConstraint9isEnabledEv(ptr noundef nonnull align 8 dereferenceable(72) %33)
          to label %35 unwind label %62

35:                                               ; preds = %32
  br i1 %34, label %36, label %77

36:                                               ; preds = %35
  %37 = load ptr, ptr %11, align 8, !tbaa !192
  %38 = load ptr, ptr %37, align 8, !tbaa !14
  %39 = getelementptr inbounds ptr, ptr %38, i64 2
  %40 = load ptr, ptr %39, align 8
  invoke void %40(ptr noundef nonnull align 8 dereferenceable(72) %37)
          to label %41 unwind label %62

41:                                               ; preds = %36
  %42 = load ptr, ptr %11, align 8, !tbaa !192
  invoke void @_ZN17btTypedConstraint25internalSetAppliedImpulseEf(ptr noundef nonnull align 8 dereferenceable(72) %42, float noundef 0.000000e+00)
          to label %43 unwind label %62

43:                                               ; preds = %41
  call void @llvm.lifetime.start.p0(i64 8, ptr %15) #16
  %44 = load ptr, ptr %11, align 8, !tbaa !192
  %45 = invoke noundef ptr @_ZN17btTypedConstraint16getJointFeedbackEv(ptr noundef nonnull align 8 dereferenceable(72) %44)
          to label %46 unwind label %66

46:                                               ; preds = %43
  store ptr %45, ptr %15, align 8, !tbaa !195
  %47 = load ptr, ptr %15, align 8, !tbaa !195
  %48 = icmp ne ptr %47, null
  br i1 %48, label %49, label %70

49:                                               ; preds = %46
  %50 = load ptr, ptr %15, align 8, !tbaa !195
  %51 = getelementptr inbounds nuw %struct.btJointFeedback, ptr %50, i32 0, i32 0
  invoke void @_ZN9btVector37setZeroEv(ptr noundef nonnull align 4 dereferenceable(16) %51)
          to label %52 unwind label %66

52:                                               ; preds = %49
  %53 = load ptr, ptr %15, align 8, !tbaa !195
  %54 = getelementptr inbounds nuw %struct.btJointFeedback, ptr %53, i32 0, i32 1
  invoke void @_ZN9btVector37setZeroEv(ptr noundef nonnull align 4 dereferenceable(16) %54)
          to label %55 unwind label %66

55:                                               ; preds = %52
  %56 = load ptr, ptr %15, align 8, !tbaa !195
  %57 = getelementptr inbounds nuw %struct.btJointFeedback, ptr %56, i32 0, i32 2
  invoke void @_ZN9btVector37setZeroEv(ptr noundef nonnull align 4 dereferenceable(16) %57)
          to label %58 unwind label %66

58:                                               ; preds = %55
  %59 = load ptr, ptr %15, align 8, !tbaa !195
  %60 = getelementptr inbounds nuw %struct.btJointFeedback, ptr %59, i32 0, i32 3
  invoke void @_ZN9btVector37setZeroEv(ptr noundef nonnull align 4 dereferenceable(16) %60)
          to label %61 unwind label %66

61:                                               ; preds = %58
  br label %70

62:                                               ; preds = %41, %36, %32, %23
  %63 = landingpad { ptr, i32 }
          cleanup
  %64 = extractvalue { ptr, i32 } %63, 0
  store ptr %64, ptr %13, align 8
  %65 = extractvalue { ptr, i32 } %63, 1
  store i32 %65, ptr %14, align 4
  br label %86

66:                                               ; preds = %70, %58, %55, %52, %49, %43
  %67 = landingpad { ptr, i32 }
          cleanup
  %68 = extractvalue { ptr, i32 } %67, 0
  store ptr %68, ptr %13, align 8
  %69 = extractvalue { ptr, i32 } %67, 1
  store i32 %69, ptr %14, align 4
  call void @llvm.lifetime.end.p0(i64 8, ptr %15) #16
  br label %86

70:                                               ; preds = %61, %46
  %71 = load ptr, ptr %11, align 8, !tbaa !192
  %72 = load ptr, ptr %12, align 8, !tbaa !194
  %73 = load ptr, ptr %71, align 8, !tbaa !14
  %74 = getelementptr inbounds ptr, ptr %73, i64 4
  %75 = load ptr, ptr %74, align 8
  invoke void %75(ptr noundef nonnull align 8 dereferenceable(72) %71, ptr noundef %72)
          to label %76 unwind label %66

76:                                               ; preds = %70
  call void @llvm.lifetime.end.p0(i64 8, ptr %15) #16
  br label %82

77:                                               ; preds = %35
  %78 = load ptr, ptr %12, align 8, !tbaa !194
  %79 = getelementptr inbounds nuw %"struct.btTypedConstraint::btConstraintInfo1", ptr %78, i32 0, i32 0
  store i32 0, ptr %79, align 4, !tbaa !197
  %80 = load ptr, ptr %12, align 8, !tbaa !194
  %81 = getelementptr inbounds nuw %"struct.btTypedConstraint::btConstraintInfo1", ptr %80, i32 0, i32 1
  store i32 0, ptr %81, align 4, !tbaa !199
  br label %82

82:                                               ; preds = %77, %76
  call void @llvm.lifetime.end.p0(i64 8, ptr %12) #16
  call void @llvm.lifetime.end.p0(i64 8, ptr %11) #16
  br label %83

83:                                               ; preds = %82
  %84 = load i32, ptr %10, align 4, !tbaa !9
  %85 = add nsw i32 %84, 1
  store i32 %85, ptr %10, align 4, !tbaa !9
  br label %18, !llvm.loop !200

86:                                               ; preds = %66, %62
  call void @llvm.lifetime.end.p0(i64 8, ptr %12) #16
  call void @llvm.lifetime.end.p0(i64 8, ptr %11) #16
  call void @llvm.lifetime.end.p0(i64 4, ptr %10) #16
  call void @_ZN14CProfileSampleD1Ev(ptr noundef nonnull align 1 dereferenceable(1) %9) #16
  call void @llvm.lifetime.end.p0(i64 1, ptr %9) #16
  br label %88

87:                                               ; preds = %22
  call void @_ZN14CProfileSampleD1Ev(ptr noundef nonnull align 1 dereferenceable(1) %9) #16
  call void @llvm.lifetime.end.p0(i64 1, ptr %9) #16
  ret void

88:                                               ; preds = %86
  %89 = load ptr, ptr %13, align 8
  %90 = load i32, ptr %14, align 4
  %91 = insertvalue { ptr, i32 } poison, ptr %89, 0
  %92 = insertvalue { ptr, i32 } %91, i32 %90, 1
  resume { ptr, i32 } %92
}