; Function Attrs: mustprogress uwtable
define dso_local void @_ZN37btSequentialImpulseConstraintSolverMt26internalInitMultipleJointsEPP17btTypedConstraintii(ptr noundef nonnull readonly align 8 captures(none) dereferenceable(920) %0, ptr noundef readonly captures(none) %1, i32 noundef %2, i32 noundef %3) local_unnamed_addr #0 align 2 personality ptr @__gxx_personality_v0 {
  %5 = alloca %class.CProfileSample, align 1
  call void @llvm.lifetime.start.p0(i64 1, ptr nonnull %5) #16
  call void @_ZN14CProfileSampleC1EPKc(ptr noundef nonnull align 1 dereferenceable(1) %5, ptr noundef nonnull @.str.8)
  %6 = icmp slt i32 %2, %3
  br i1 %6, label %.lr.ph, label %._crit_edge

.lr.ph:                                           ; preds = %4
  %7 = getelementptr inbounds nuw i8, ptr %0, i64 280
  %8 = sext i32 %2 to i64
  br label %9

._crit_edge:                                      ; preds = %36, %4
  call void @_ZN14CProfileSampleD1Ev(ptr noundef nonnull align 1 dereferenceable(1) %5) #16
  call void @llvm.lifetime.end.p0(i64 1, ptr nonnull %5) #16
  ret void

9:                                                ; preds = %.lr.ph, %36
  %indvars.iv = phi i64 [ %8, %.lr.ph ], [ %indvars.iv.next, %36 ]
  %10 = getelementptr inbounds ptr, ptr %1, i64 %indvars.iv
  %11 = load ptr, ptr %10, align 8, !tbaa !163
  %12 = load ptr, ptr %7, align 8, !tbaa !165
  %13 = getelementptr inbounds %"struct.btTypedConstraint::btConstraintInfo1", ptr %12, i64 %indvars.iv
  %14 = getelementptr inbounds nuw i8, ptr %11, i64 28
  %15 = load i8, ptr %14, align 4, !tbaa !166, !range !63, !noundef !64
  %16 = trunc nuw i8 %15 to i1
  br i1 %16, label %17, label %34

17:                                               ; preds = %9
  %18 = load ptr, ptr %11, align 8, !tbaa !4
  %19 = getelementptr inbounds nuw i8, ptr %18, i64 16
  %20 = load ptr, ptr %19, align 8
  invoke void %20(ptr noundef nonnull align 8 dereferenceable(72) %11)
          to label %21 unwind label %26

21:                                               ; preds = %17
  %22 = getelementptr inbounds nuw i8, ptr %11, i64 56
  store float 0.000000e+00, ptr %22, align 8, !tbaa !169
  %23 = getelementptr inbounds nuw i8, ptr %11, i64 64
  %24 = load ptr, ptr %23, align 8, !tbaa !170
  %.not = icmp eq ptr %24, null
  br i1 %.not, label %30, label %25

25:                                               ; preds = %21
  call void @llvm.memset.p0.i64(ptr noundef nonnull align 4 dereferenceable(64) %24, i8 0, i64 64, i1 false)
  br label %30

26:                                               ; preds = %17
  %27 = landingpad { ptr, i32 }
          cleanup
  br label %37

28:                                               ; preds = %30
  %29 = landingpad { ptr, i32 }
          cleanup
  br label %37

30:                                               ; preds = %25, %21
  %31 = load ptr, ptr %11, align 8, !tbaa !4
  %32 = getelementptr inbounds nuw i8, ptr %31, i64 32
  %33 = load ptr, ptr %32, align 8
  invoke void %33(ptr noundef nonnull align 8 dereferenceable(72) %11, ptr noundef nonnull %13)
          to label %36 unwind label %28

34:                                               ; preds = %9
  store i32 0, ptr %13, align 4, !tbaa !171
  %35 = getelementptr inbounds nuw i8, ptr %13, i64 4
  store i32 0, ptr %35, align 4, !tbaa !173
  br label %36

36:                                               ; preds = %30, %34
  %indvars.iv.next = add nsw i64 %indvars.iv, 1
  %lftr.wideiv = trunc i64 %indvars.iv.next to i32
  %exitcond.not = icmp eq i32 %3, %lftr.wideiv
  br i1 %exitcond.not, label %._crit_edge, label %9, !llvm.loop !174

37:                                               ; preds = %28, %26
  %.pn = phi { ptr, i32 } [ %29, %28 ], [ %27, %26 ]
  call void @_ZN14CProfileSampleD1Ev(ptr noundef nonnull align 1 dereferenceable(1) %5) #16
  call void @llvm.lifetime.end.p0(i64 1, ptr nonnull %5) #16
  resume { ptr, i32 } %.pn
}